target datalayout = "e-m:e-p270:32:32-p271:32:32-p272:64:64-i64:64-i128:128-f80:128-n8:16:32:64-S128"
target triple = "x86_64-pc-linux-gnu"

%struct.Hop_Obj_t_ = type { %union.anon.2, %union.anon.3, ptr, ptr, i32, i32 }
%union.anon.2 = type { ptr }
%union.anon.3 = type { ptr }
%struct.Hop_Man_t_ = type { ptr, ptr, ptr, ptr, %struct.Hop_Obj_t_, [6 x i32], i32, i32, ptr, i32, ptr, i32, i32, i32, ptr, ptr, ptr, i64, i64 }

; Function Attrs: inlinehint nounwind uwtable
define internal ptr @Hop_Not(ptr noundef %0) #6 {
  %2 = alloca ptr, align 8
  store ptr %0, ptr %2, align 8, !tbaa !113
  %3 = load ptr, ptr %2, align 8, !tbaa !113
  %4 = ptrtoint ptr %3 to i64
  %5 = xor i64 %4, 1
  %6 = inttoptr i64 %5 to ptr
  ret ptr %6
}

; Function Attrs: inlinehint nounwind uwtable
define internal ptr @Hop_ManConst1(ptr noundef %0) #6 {
  %2 = alloca ptr, align 8
  store ptr %0, ptr %2, align 8, !tbaa !101
  %3 = load ptr, ptr %2, align 8, !tbaa !101
  %4 = getelementptr inbounds nuw %struct.Hop_Man_t_, ptr %3, i32 0, i32 3
  %5 = load ptr, ptr %4, align 8, !tbaa !120
  ret ptr %5
}

; Function Attrs: inlinehint nounwind uwtable
define internal ptr @Hop_ManConst0(ptr noundef %0) #6 {
  %2 = alloca ptr, align 8
  store ptr %0, ptr %2, align 8, !tbaa !101
  %3 = load ptr, ptr %2, align 8, !tbaa !101
  %4 = getelementptr inbounds nuw %struct.Hop_Man_t_, ptr %3, i32 0, i32 3
  %5 = load ptr, ptr %4, align 8, !tbaa !120
  %6 = call ptr @Hop_Not(ptr noundef %5)
  ret ptr %6
}

; Function Attrs: nounwind uwtable
define ptr @Abc_ConvertSopToAigInternal(ptr noundef %0, ptr noundef %1) #0 {
  %3 = alloca ptr, align 8
  %4 = alloca ptr, align 8
  %5 = alloca ptr, align 8
  %6 = alloca ptr, align 8
  %7 = alloca i32, align 4
  %8 = alloca i32, align 4
  %9 = alloca i32, align 4
  %10 = alloca ptr, align 8
  store ptr %0, ptr %3, align 8, !tbaa !101
  store ptr %1, ptr %4, align 8, !tbaa !3
  call void @llvm.lifetime.start.p0(i64 8, ptr %5) #10
  call void @llvm.lifetime.start.p0(i64 8, ptr %6) #10
  call void @llvm.lifetime.start.p0(i64 4, ptr %7) #10
  call void @llvm.lifetime.start.p0(i64 4, ptr %8) #10
  call void @llvm.lifetime.start.p0(i64 4, ptr %9) #10
  call void @llvm.lifetime.start.p0(i64 8, ptr %10) #10
  %11 = load ptr, ptr %4, align 8, !tbaa !3
  %12 = call i32 @Abc_SopGetVarNum(ptr noundef %11)
  store i32 %12, ptr %9, align 4, !tbaa !8
  %13 = load ptr, ptr %4, align 8, !tbaa !3
  %14 = call i32 @Abc_SopIsExorType(ptr noundef %13)
  %15 = icmp ne i32 %14, 0
  br i1 %15, label %16, label %34

16:                                               ; preds = %2
  %17 = load ptr, ptr %3, align 8, !tbaa !101
  %18 = call ptr @Hop_ManConst0(ptr noundef %17)
  store ptr %18, ptr %6, align 8, !tbaa !113
  store i32 0, ptr %7, align 4, !tbaa !8
  br label %19

19:                                               ; preds = %30, %16
  %20 = load i32, ptr %7, align 4, !tbaa !8
  %21 = load i32, ptr %9, align 4, !tbaa !8
  %22 = icmp slt i32 %20, %21
  br i1 %22, label %23, label %33

23:                                               ; preds = %19
  %24 = load ptr, ptr %3, align 8, !tbaa !101
  %25 = load ptr, ptr %6, align 8, !tbaa !113
  %26 = load ptr, ptr %3, align 8, !tbaa !101
  %27 = load i32, ptr %7, align 4, !tbaa !8
  %28 = call ptr @Hop_IthVar(ptr noundef %26, i32 noundef %27)
  %29 = call ptr @Hop_Exor(ptr noundef %24, ptr noundef %25, ptr noundef %28)
  store ptr %29, ptr %6, align 8, !tbaa !113
  br label %30

30:                                               ; preds = %23
  %31 = load i32, ptr %7, align 4, !tbaa !8
  %32 = add nsw i32 %31, 1
  store i32 %32, ptr %7, align 4, !tbaa !8
  br label %19, !llvm.loop !117

33:                                               ; preds = %19
  br label %101

34:                                               ; preds = %2
  %35 = load ptr, ptr %3, align 8, !tbaa !101
  %36 = call ptr @Hop_ManConst0(ptr noundef %35)
  store ptr %36, ptr %6, align 8, !tbaa !113
  %37 = load ptr, ptr %4, align 8, !tbaa !3
  store ptr %37, ptr %10, align 8, !tbaa !3
  br label %38

38:                                               ; preds = %94, %34
  %39 = load ptr, ptr %10, align 8, !tbaa !3
  %40 = load i8, ptr %39, align 1, !tbaa !12
  %41 = icmp ne i8 %40, 0
  br i1 %41, label %42, label %100

42:                                               ; preds = %38
  %43 = load ptr, ptr %3, align 8, !tbaa !101
  %44 = call ptr @Hop_ManConst1(ptr noundef %43)
  store ptr %44, ptr %5, align 8, !tbaa !113
  store i32 0, ptr %7, align 4, !tbaa !8
  br label %45

45:                                               ; preds = %86, %42
  %46 = load ptr, ptr %10, align 8, !tbaa !3
  %47 = load i32, ptr %7, align 4, !tbaa !8
  %48 = sext i32 %47 to i64
  %49 = getelementptr inbounds i8, ptr %46, i64 %48
  %50 = load i8, ptr %49, align 1, !tbaa !12
  %51 = sext i8 %50 to i32
  %52 = icmp ne i32 %51, 32
  br i1 %52, label %53, label %61

53:                                               ; preds = %45
  %54 = load ptr, ptr %10, align 8, !tbaa !3
  %55 = load i32, ptr %7, align 4, !tbaa !8
  %56 = sext i32 %55 to i64
  %57 = getelementptr inbounds i8, ptr %54, i64 %56
  %58 = load i8, ptr %57, align 1, !tbaa !12
  %59 = sext i8 %58 to i32
  store i32 %59, ptr %8, align 4, !tbaa !8
  %60 = icmp ne i32 %59, 0
  br label %61

61:                                               ; preds = %53, %45
  %62 = phi i1 [ false, %45 ], [ %60, %53 ]
  br i1 %62, label %63, label %89

63:                                               ; preds = %61
  %64 = load i32, ptr %8, align 4, !tbaa !8
  %65 = icmp eq i32 %64, 49
  br i1 %65, label %66, label %73

66:                                               ; preds = %63
  %67 = load ptr, ptr %3, align 8, !tbaa !101
  %68 = load ptr, ptr %5, align 8, !tbaa !113
  %69 = load ptr, ptr %3, align 8, !tbaa !101
  %70 = load i32, ptr %7, align 4, !tbaa !8
  %71 = call ptr @Hop_IthVar(ptr noundef %69, i32 noundef %70)
  %72 = call ptr @Hop_And(ptr noundef %67, ptr noundef %68, ptr noundef %71)
  store ptr %72, ptr %5, align 8, !tbaa !113
  br label %85

73:                                               ; preds = %63
  %74 = load i32, ptr %8, align 4, !tbaa !8
  %75 = icmp eq i32 %74, 48
  br i1 %75, label %76, label %84

76:                                               ; preds = %73
  %77 = load ptr, ptr %3, align 8, !tbaa !101
  %78 = load ptr, ptr %5, align 8, !tbaa !113
  %79 = load ptr, ptr %3, align 8, !tbaa !101
  %80 = load i32, ptr %7, align 4, !tbaa !8
  %81 = call ptr @Hop_IthVar(ptr noundef %79, i32 noundef %80)
  %82 = call ptr @Hop_Not(ptr noundef %81)
  %83 = call ptr @Hop_And(ptr noundef %77, ptr noundef %78, ptr noundef %82)
  store ptr %83, ptr %5, align 8, !tbaa !113
  br label %84

84:                                               ; preds = %76, %73
  br label %85

85:                                               ; preds = %84, %66
  br label %86

86:                                               ; preds = %85
  %87 = load i32, ptr %7, align 4, !tbaa !8
  %88 = add nsw i32 %87, 1
  store i32 %88, ptr %7, align 4, !tbaa !8
  br label %45, !llvm.loop !118

89:                                               ; preds = %61
  %90 = load ptr, ptr %3, align 8, !tbaa !101
  %91 = load ptr, ptr %6, align 8, !tbaa !113
  %92 = load ptr, ptr %5, align 8, !tbaa !113
  %93 = call ptr @Hop_Or(ptr noundef %90, ptr noundef %91, ptr noundef %92)
  store ptr %93, ptr %6, align 8, !tbaa !113
  br label %94

94:                                               ; preds = %89
  %95 = load i32, ptr %9, align 4, !tbaa !8
  %96 = add nsw i32 %95, 3
  %97 = load ptr, ptr %10, align 8, !tbaa !3
  %98 = sext i32 %96 to i64
  %99 = getelementptr inbounds i8, ptr %97, i64 %98
  store ptr %99, ptr %10, align 8, !tbaa !3
  br label %38, !llvm.loop !119

100:                                              ; preds = %38
  br label %101

101:                                              ; preds = %100, %33
  %102 = load ptr, ptr %4, align 8, !tbaa !3
  %103 = call i32 @Abc_SopIsComplement(ptr noundef %102)
  %104 = icmp ne i32 %103, 0
  br i1 %104, label %105, label %108

105:                                              ; preds = %101
  %106 = load ptr, ptr %6, align 8, !tbaa !113
  %107 = call ptr @Hop_Not(ptr noundef %106)
  store ptr %107, ptr %6, align 8, !tbaa !113
  br label %108

108:                                              ; preds = %105, %101
  %109 = load ptr, ptr %6, align 8, !tbaa !113
  call void @llvm.lifetime.end.p0(i64 8, ptr %10) #10
  call void @llvm.lifetime.end.p0(i64 4, ptr %9) #10
  call void @llvm.lifetime.end.p0(i64 4, ptr %8) #10
  call void @llvm.lifetime.end.p0(i64 4, ptr %7) #10
  call void @llvm.lifetime.end.p0(i64 8, ptr %6) #10
  call void @llvm.lifetime.end.p0(i64 8, ptr %5) #10
  ret ptr %109
}