; Function Attrs: nounwind uwtable
define ptr @Abc_ConvertSopToAigInternal(ptr noundef %0, ptr noundef %1) local_unnamed_addr #2 {
  %3 = tail call i32 @Abc_SopGetVarNum(ptr noundef %1) #17
  %4 = tail call i32 @Abc_SopIsExorType(ptr noundef %1) #17
  %.not = icmp eq i32 %4, 0
  %5 = getelementptr i8, ptr %0, i64 24
  %.val47 = load ptr, ptr %5, align 8, !tbaa !97
  %6 = ptrtoint ptr %.val47 to i64
  %7 = xor i64 %6, 1
  %8 = inttoptr i64 %7 to ptr
  br i1 %.not, label %14, label %9

9:                                                ; preds = %2
  %10 = icmp sgt i32 %3, 0
  br i1 %10, label %.lr.ph, label %.loopexit

.lr.ph:                                           ; preds = %9, %.lr.ph
  %.03750 = phi ptr [ %12, %.lr.ph ], [ %8, %9 ]
  %.03949 = phi i32 [ %13, %.lr.ph ], [ 0, %9 ]
  %11 = tail call ptr @Hop_IthVar(ptr noundef %0, i32 noundef %.03949) #17
  %12 = tail call ptr @Hop_Exor(ptr noundef %0, ptr noundef %.03750, ptr noundef %11) #17
  %13 = add nuw nsw i32 %.03949, 1
  %exitcond.not = icmp eq i32 %13, %3
  br i1 %exitcond.not, label %.loopexit, label %.lr.ph, !llvm.loop !99

14:                                               ; preds = %2
  %15 = load i8, ptr %1, align 1, !tbaa !3
  %.not4251 = icmp eq i8 %15, 0
  br i1 %.not4251, label %.loopexit, label %.lr.ph54

.lr.ph54:                                         ; preds = %14
  %16 = sext i32 %3 to i64
  br label %17

17:                                               ; preds = %.lr.ph54, %.critedge
  %18 = phi i8 [ %15, %.lr.ph54 ], [ %35, %.critedge ]
  %.053 = phi ptr [ %1, %.lr.ph54 ], [ %34, %.critedge ]
  %.252 = phi ptr [ %8, %.lr.ph54 ], [ %32, %.critedge ]
  %.val = load ptr, ptr %5, align 8, !tbaa !97
  br label %19

19:                                               ; preds = %31, %17
  %20 = phi i8 [ %.pre, %31 ], [ %18, %17 ]
  %indvars.iv = phi i64 [ %indvars.iv.next, %31 ], [ 0, %17 ]
  %.036 = phi ptr [ %.1, %31 ], [ %.val, %17 ]
  switch i8 %20, label %31 [
    i8 32, label %.critedge
    i8 0, label %.critedge
    i8 49, label %21
    i8 48, label %24
  ]

21:                                               ; preds = %19
  %22 = trunc nuw nsw i64 %indvars.iv to i32
  %23 = tail call ptr @Hop_IthVar(ptr noundef %0, i32 noundef %22) #17
  br label %.sink.split

24:                                               ; preds = %19
  %25 = trunc nuw nsw i64 %indvars.iv to i32
  %26 = tail call ptr @Hop_IthVar(ptr noundef %0, i32 noundef %25) #17
  %27 = ptrtoint ptr %26 to i64
  %28 = xor i64 %27, 1
  %29 = inttoptr i64 %28 to ptr
  br label %.sink.split

.sink.split:                                      ; preds = %24, %21
  %.sink = phi ptr [ %23, %21 ], [ %29, %24 ]
  %30 = tail call ptr @Hop_And(ptr noundef %0, ptr noundef %.036, ptr noundef %.sink) #17
  br label %31

31:                                               ; preds = %.sink.split, %19
  %.1 = phi ptr [ %.036, %19 ], [ %30, %.sink.split ]
  %indvars.iv.next = add nuw nsw i64 %indvars.iv, 1
  %.phi.trans.insert = getelementptr inbounds nuw i8, ptr %.053, i64 %indvars.iv.next
  %.pre = load i8, ptr %.phi.trans.insert, align 1, !tbaa !3
  br label %19, !llvm.loop !100

.critedge:                                        ; preds = %19, %19
  %32 = tail call ptr @Hop_Or(ptr noundef %0, ptr noundef %.252, ptr noundef %.036) #17
  %33 = getelementptr i8, ptr %.053, i64 %16
  %34 = getelementptr i8, ptr %33, i64 3
  %35 = load i8, ptr %34, align 1, !tbaa !3
  %.not42 = icmp eq i8 %35, 0
  br i1 %.not42, label %.loopexit, label %17, !llvm.loop !101

.loopexit:                                        ; preds = %.lr.ph, %.critedge, %9, %14
  %.138 = phi ptr [ %8, %14 ], [ %8, %9 ], [ %32, %.critedge ], [ %12, %.lr.ph ]
  %36 = tail call i32 @Abc_SopIsComplement(ptr noundef %1) #17
  %.not45 = icmp eq i32 %36, 0
  %37 = ptrtoint ptr %.138 to i64
  %38 = xor i64 %37, 1
  %39 = inttoptr i64 %38 to ptr
  %.3 = select i1 %.not45, ptr %.138, ptr %39
  ret ptr %.3
}